; Function Attrs: mustprogress uwtable
define noundef i32 @_ZNK8proxygen16QPACKHeaderTable9nameIndexERKNS_15HPACKHeaderNameEb(ptr noundef nonnull align 8 dereferenceable(104) %this, ptr nocapture noundef nonnull readonly align 8 dereferenceable(8) %headerName, i1 noundef zeroext %allowVulnerable) local_unnamed_addr #3 align 2 personality ptr @__gxx_personality_v0 {
invoke.cont:
  %ref.tmp.i = alloca %"class.std::allocator.19", align 1
  %value = alloca %"class.folly::basic_fbstring", align 8
  call void @llvm.lifetime.start.p0(i64 1, ptr nonnull %ref.tmp.i)
  call void @_ZNSaIcEC1Ev(ptr noundef nonnull align 1 dereferenceable(1) %ref.tmp.i) #25
  %arrayidx.i.i.i.i.i = getelementptr inbounds i8, ptr %value, i64 23
  store i8 23, ptr %arrayidx.i.i.i.i.i, align 1
  store i8 0, ptr %value, align 8
  call void @_ZNSaIcED1Ev(ptr noundef nonnull align 1 dereferenceable(1) %ref.tmp.i) #25
  call void @llvm.lifetime.end.p0(i64 1, ptr nonnull %ref.tmp.i)
  %call = invoke noundef i32 @_ZNK8proxygen16QPACKHeaderTable12getIndexImplERKNS_15HPACKHeaderNameEN5folly5RangeIPKcEEbb(ptr noundef nonnull align 8 dereferenceable(104) %this, ptr noundef nonnull align 8 dereferenceable(8) %headerName, ptr nonnull %value, ptr nonnull %value, i1 noundef zeroext true, i1 noundef zeroext %allowVulnerable)
          to label %invoke.cont2 unwind label %lpad

invoke.cont2:                                     ; preds = %invoke.cont
  %0 = load i8, ptr %arrayidx.i.i.i.i.i, align 1
  %1 = and i8 %0, -64
  %cmp.i.i = icmp eq i8 %1, 0
  br i1 %cmp.i.i, label %_ZN5folly14basic_fbstringIcSt11char_traitsIcESaIcENS_13fbstring_coreIcEEED2Ev.exit, label %if.end.i.i

if.end.i.i:                                       ; preds = %invoke.cont2
  %cmp.i.i.i2 = icmp eq i8 %1, -128
  %2 = load ptr, ptr %value, align 8
  br i1 %cmp.i.i.i2, label %if.then.i.i.i, label %if.else.i.i.i

if.then.i.i.i:                                    ; preds = %if.end.i.i
  call void @free(ptr noundef %2) #25
  br label %_ZN5folly14basic_fbstringIcSt11char_traitsIcESaIcENS_13fbstring_coreIcEEED2Ev.exit

if.else.i.i.i:                                    ; preds = %if.end.i.i
  %add.ptr.i.i.i.i.i = getelementptr inbounds i8, ptr %2, i64 -8
  %3 = atomicrmw sub ptr %add.ptr.i.i.i.i.i, i64 1 acq_rel, align 8
  %cmp.i.i.i.i3 = icmp eq i64 %3, 1
  br i1 %cmp.i.i.i.i3, label %if.then.i.i.i.i, label %_ZN5folly14basic_fbstringIcSt11char_traitsIcESaIcENS_13fbstring_coreIcEEED2Ev.exit

if.then.i.i.i.i:                                  ; preds = %if.else.i.i.i
  call void @free(ptr noundef nonnull %add.ptr.i.i.i.i.i) #25
  br label %_ZN5folly14basic_fbstringIcSt11char_traitsIcESaIcENS_13fbstring_coreIcEEED2Ev.exit

_ZN5folly14basic_fbstringIcSt11char_traitsIcESaIcENS_13fbstring_coreIcEEED2Ev.exit: ; preds = %invoke.cont2, %if.then.i.i.i, %if.else.i.i.i, %if.then.i.i.i.i
  ret i32 %call

lpad:                                             ; preds = %invoke.cont
  %4 = landingpad { ptr, i32 }
          cleanup
  call void @_ZN5folly14basic_fbstringIcSt11char_traitsIcESaIcENS_13fbstring_coreIcEEED2Ev(ptr noundef nonnull align 8 dereferenceable(24) %value) #25
  resume { ptr, i32 } %4
}